target datalayout = "e-m:e-p270:32:32-p271:32:32-p272:64:64-i64:64-i128:128-f80:128-n8:16:32:64-S128"
target triple = "x86_64-pc-linux-gnu"

%struct.strbuf = type { i64, i64, ptr }

@.str.45 = private unnamed_addr constant [1 x i8] zeroinitializer, align 1
@git_gettext_enabled = external global i32, align 4
@.str.69 = private unnamed_addr constant [3 x i8] c"%s\00", align 1
@.str.84 = private unnamed_addr constant [45 x i8] c"could not create leading directories of '%s'\00", align 1

; Function Attrs: inlinehint nounwind uwtable
define internal i32 @const_error() #4 {
  ret i32 -1
}

; Function Attrs: inlinehint nounwind uwtable
define internal ptr @_(ptr noundef %0) #4 {
  %2 = alloca ptr, align 8
  %3 = alloca ptr, align 8
  store ptr %0, ptr %3, align 8, !tbaa !11
  %4 = load ptr, ptr %3, align 8, !tbaa !11
  %5 = load i8, ptr %4, align 1, !tbaa !33
  %6 = icmp ne i8 %5, 0
  br i1 %6, label %8, label %7

7:                                                ; preds = %1
  store ptr @.str.45, ptr %2, align 8
  br label %16

8:                                                ; preds = %1
  %9 = load i32, ptr @git_gettext_enabled, align 4, !tbaa !4
  %10 = icmp ne i32 %9, 0
  br i1 %10, label %13, label %11

11:                                               ; preds = %8
  %12 = load ptr, ptr %3, align 8, !tbaa !11
  store ptr %12, ptr %2, align 8
  br label %16

13:                                               ; preds = %8
  %14 = load ptr, ptr %3, align 8, !tbaa !11
  %15 = call ptr @dcgettext(ptr noundef null, ptr noundef %14, i32 noundef 5) #9
  store ptr %15, ptr %2, align 8
  br label %16

16:                                               ; preds = %13, %11, %7
  %17 = load ptr, ptr %2, align 8
  ret ptr %17
}

; Function Attrs: nounwind uwtable
define internal i32 @ensure_leading_directories(ptr noundef %0) #0 {
  %2 = alloca i32, align 4
  %3 = alloca ptr, align 8
  store ptr %0, ptr %3, align 8, !tbaa !11
  %4 = load ptr, ptr %3, align 8, !tbaa !11
  %5 = call i32 @safe_create_leading_directories(ptr noundef %4)
  switch i32 %5, label %7 [
    i32 0, label %6
    i32 -3, label %6
  ]

6:                                                ; preds = %1, %1
  store i32 0, ptr %2, align 4
  br label %12

7:                                                ; preds = %1
  %8 = call ptr @_(ptr noundef @.str.84)
  %9 = load ptr, ptr %3, align 8, !tbaa !11
  %10 = call i32 (ptr, ...) @error(ptr noundef %8, ptr noundef %9)
  %11 = call i32 @const_error()
  store i32 %11, ptr %2, align 4
  br label %12

12:                                               ; preds = %7, %6
  %13 = load i32, ptr %2, align 4
  ret i32 %13
}

; Function Attrs: nounwind uwtable
define internal void @write_file_in_directory(ptr noundef %0, i64 noundef %1, ptr noundef %2, ptr noundef %3) #0 {
  %5 = alloca ptr, align 8
  %6 = alloca i64, align 8
  %7 = alloca ptr, align 8
  %8 = alloca ptr, align 8
  store ptr %0, ptr %5, align 8, !tbaa !90
  store i64 %1, ptr %6, align 8, !tbaa !65
  store ptr %2, ptr %7, align 8, !tbaa !11
  store ptr %3, ptr %8, align 8, !tbaa !11
  %9 = load ptr, ptr %5, align 8, !tbaa !90
  %10 = load i64, ptr %6, align 8, !tbaa !65
  %11 = load ptr, ptr %7, align 8, !tbaa !11
  call void @add_path(ptr noundef %9, i64 noundef %10, ptr noundef %11)
  %12 = load ptr, ptr %5, align 8, !tbaa !90
  %13 = getelementptr inbounds nuw %struct.strbuf, ptr %12, i32 0, i32 2
  %14 = load ptr, ptr %13, align 8, !tbaa !56
  %15 = call i32 @ensure_leading_directories(ptr noundef %14)
  %16 = load ptr, ptr %5, align 8, !tbaa !90
  %17 = getelementptr inbounds nuw %struct.strbuf, ptr %16, i32 0, i32 2
  %18 = load ptr, ptr %17, align 8, !tbaa !56
  %19 = call i32 @unlink(ptr noundef %18) #9
  %20 = load ptr, ptr %5, align 8, !tbaa !90
  %21 = getelementptr inbounds nuw %struct.strbuf, ptr %20, i32 0, i32 2
  %22 = load ptr, ptr %21, align 8, !tbaa !56
  %23 = load ptr, ptr %8, align 8, !tbaa !11
  call void (ptr, ptr, ...) @write_file(ptr noundef %22, ptr noundef @.str.69, ptr noundef %23)
  ret void
}