; Function Attrs: nounwind uwtable
define internal fastcc void @write_file_in_directory(ptr noundef nonnull %0, i64 noundef %1, ptr noundef nonnull %2, ptr noundef nonnull %3) unnamed_addr #0 {
  tail call fastcc void @add_path(ptr noundef %0, i64 noundef %1, ptr noundef nonnull %2)
  %5 = getelementptr inbounds nuw i8, ptr %0, i64 16
  %6 = load ptr, ptr %5, align 8, !tbaa !44
  %7 = tail call i32 @safe_create_leading_directories(ptr noundef %6) #18
  switch i32 %7, label %8 [
    i32 0, label %ensure_leading_directories.exit
    i32 -3, label %ensure_leading_directories.exit
  ]

8:                                                ; preds = %4
  %9 = load i32, ptr @git_gettext_enabled, align 4, !tbaa !4
  %.not4.i.i = icmp eq i32 %9, 0
  br i1 %.not4.i.i, label %_.exit.i, label %10

10:                                               ; preds = %8
  %11 = tail call ptr @dcgettext(ptr noundef null, ptr noundef nonnull @.str.84, i32 noundef 5) #18
  br label %_.exit.i

_.exit.i:                                         ; preds = %10, %8
  %.0.i.i = phi ptr [ %11, %10 ], [ @.str.84, %8 ]
  %12 = tail call i32 (ptr, ...) @error(ptr noundef %.0.i.i, ptr noundef %6) #18
  br label %ensure_leading_directories.exit

ensure_leading_directories.exit:                  ; preds = %4, %4, %_.exit.i
  %13 = load ptr, ptr %5, align 8, !tbaa !44
  %14 = tail call i32 @unlink(ptr noundef %13) #18
  %15 = load ptr, ptr %5, align 8, !tbaa !44
  tail call void (ptr, ptr, ...) @write_file(ptr noundef %15, ptr noundef nonnull @.str.69, ptr noundef nonnull %3) #18
  ret void
}